; Function Attrs: mustprogress uwtable
define hidden void @_ZN1q4mbqi11assert_exprEP4expr(ptr nocapture noundef nonnull readonly align 8 dereferenceable(280) %this, ptr noundef %e) local_unnamed_addr #3 align 2 personality ptr @__gxx_personality_v0 {
entry:
  %_e = alloca %class.obj_ref, align 8
  %m = getelementptr inbounds i8, ptr %this, i64 16
  %0 = load ptr, ptr %m, align 8
  store ptr %e, ptr %_e, align 8
  %m_manager.i = getelementptr inbounds i8, ptr %_e, i64 8
  store ptr %0, ptr %m_manager.i, align 8
  %tobool.not.i.i = icmp eq ptr %e, null
  br i1 %tobool.not.i.i, label %_ZN7obj_refI4expr11ast_managerEC2EPS0_RS1_.exit, label %_ZN11ast_manager7inc_refEP3ast.exit.i.i

_ZN11ast_manager7inc_refEP3ast.exit.i.i:          ; preds = %entry
  %m_ref_count.i.i.i.i = getelementptr inbounds i8, ptr %e, i64 8
  %1 = load i32, ptr %m_ref_count.i.i.i.i, align 4
  %inc.i.i.i.i = add i32 %1, 1
  store i32 %inc.i.i.i.i, ptr %m_ref_count.i.i.i.i, align 4
  br label %_ZN7obj_refI4expr11ast_managerEC2EPS0_RS1_.exit

_ZN7obj_refI4expr11ast_managerEC2EPS0_RS1_.exit:  ; preds = %entry, %_ZN11ast_manager7inc_refEP3ast.exit.i.i
  %m_solver = getelementptr inbounds i8, ptr %this, i64 192
  %2 = load ptr, ptr %m_solver, align 8
  invoke void @_ZN6solver11assert_exprEP4expr(ptr noundef nonnull align 8 dereferenceable(96) %2, ptr noundef %e)
          to label %invoke.cont2 unwind label %lpad

invoke.cont2:                                     ; preds = %_ZN7obj_refI4expr11ast_managerEC2EPS0_RS1_.exit
  br i1 %tobool.not.i.i, label %_ZN7obj_refI4expr11ast_managerED2Ev.exit, label %if.then.i.i.i

if.then.i.i.i:                                    ; preds = %invoke.cont2
  %m_ref_count.i.i.i.i3 = getelementptr inbounds i8, ptr %e, i64 8
  %3 = load i32, ptr %m_ref_count.i.i.i.i3, align 4
  %dec.i.i.i.i = add i32 %3, -1
  store i32 %dec.i.i.i.i, ptr %m_ref_count.i.i.i.i3, align 4
  %cmp.i.i.i = icmp eq i32 %dec.i.i.i.i, 0
  br i1 %cmp.i.i.i, label %if.then2.i.i.i, label %_ZN7obj_refI4expr11ast_managerED2Ev.exit

if.then2.i.i.i:                                   ; preds = %if.then.i.i.i
  invoke void @_ZN11ast_manager11delete_nodeEP3ast(ptr noundef nonnull align 8 dereferenceable(976) %0, ptr noundef nonnull %e)
          to label %_ZN7obj_refI4expr11ast_managerED2Ev.exit unwind label %terminate.lpad.i

terminate.lpad.i:                                 ; preds = %if.then2.i.i.i
  %4 = landingpad { ptr, i32 }
          catch ptr null
  %5 = extractvalue { ptr, i32 } %4, 0
  tail call void @__clang_call_terminate(ptr %5) #19
  unreachable

_ZN7obj_refI4expr11ast_managerED2Ev.exit:         ; preds = %invoke.cont2, %if.then.i.i.i, %if.then2.i.i.i
  ret void

lpad:                                             ; preds = %_ZN7obj_refI4expr11ast_managerEC2EPS0_RS1_.exit
  %6 = landingpad { ptr, i32 }
          cleanup
  call void @_ZN7obj_refI4expr11ast_managerED2Ev(ptr noundef nonnull align 8 dereferenceable(16) %_e) #18
  resume { ptr, i32 } %6
}